; Function Attrs: mustprogress nofree nounwind uwtable
define void @fstWriterSetTimescale(ptr noundef captures(address_is_null) %0, i32 noundef %1) local_unnamed_addr #14 {
  %.not = icmp eq ptr %0, null
  br i1 %.not, label %_ZL15fstWriterFseekoP16fstWriterContextP8_IO_FILEli.exit10, label %3

3:                                                ; preds = %2
  %4 = load ptr, ptr %0, align 8, !tbaa !26
  %5 = tail call i64 @ftello(ptr noundef %4)
  %6 = load ptr, ptr %0, align 8, !tbaa !26
  %7 = tail call i32 @fseeko(ptr noundef %6, i64 noundef 73, i32 noundef 0)
  %8 = icmp slt i32 %7, 0
  br i1 %8, label %9, label %_ZL15fstWriterFseekoP16fstWriterContextP8_IO_FILEli.exit

9:                                                ; preds = %3
  %10 = getelementptr inbounds nuw i8, ptr %0, i64 300
  %11 = load i8, ptr %10, align 4
  %12 = or i8 %11, 1
  store i8 %12, ptr %10, align 4
  br label %_ZL15fstWriterFseekoP16fstWriterContextP8_IO_FILEli.exit

_ZL15fstWriterFseekoP16fstWriterContextP8_IO_FILEli.exit: ; preds = %3, %9
  %13 = and i32 %1, 255
  %14 = load ptr, ptr %0, align 8, !tbaa !26
  %15 = tail call i32 @fputc(i32 noundef %13, ptr noundef %14)
  %16 = load ptr, ptr %0, align 8, !tbaa !26
  %17 = tail call i32 @fflush(ptr noundef %16)
  %18 = load ptr, ptr %0, align 8, !tbaa !26
  %19 = tail call i32 @fseeko(ptr noundef %18, i64 noundef %5, i32 noundef 0)
  %20 = icmp slt i32 %19, 0
  br i1 %20, label %21, label %_ZL15fstWriterFseekoP16fstWriterContextP8_IO_FILEli.exit10

21:                                               ; preds = %_ZL15fstWriterFseekoP16fstWriterContextP8_IO_FILEli.exit
  %22 = getelementptr inbounds nuw i8, ptr %0, i64 300
  %23 = load i8, ptr %22, align 4
  %24 = or i8 %23, 1
  store i8 %24, ptr %22, align 4
  br label %_ZL15fstWriterFseekoP16fstWriterContextP8_IO_FILEli.exit10

_ZL15fstWriterFseekoP16fstWriterContextP8_IO_FILEli.exit10: ; preds = %21, %_ZL15fstWriterFseekoP16fstWriterContextP8_IO_FILEli.exit, %2
  ret void
}